; Function Attrs: mustprogress uwtable
define hidden noundef nonnull align 8 dereferenceable(8) ptr @_ZN3sls9bv_plugin12trace_repairEbP4expr(ptr noundef nonnull align 8 dereferenceable(1049) %0, i1 noundef zeroext %1, ptr noundef %2) local_unnamed_addr #3 align 2 {
  %4 = tail call noundef nonnull align 8 dereferenceable(8) ptr @_Z14verbose_streamv()
  %.str.6..str.7 = select i1 %1, ptr @.str.6, ptr @.str.7
  %5 = tail call noundef nonnull align 8 dereferenceable(8) ptr @_ZSt16__ostream_insertIcSt11char_traitsIcEERSt13basic_ostreamIT_T0_ES6_PKS3_l(ptr noundef nonnull align 8 dereferenceable(8) %4, ptr noundef nonnull %.str.6..str.7, i64 noundef 3)
  %6 = load i32, ptr %2, align 4, !tbaa !157
  %7 = zext i32 %6 to i64
  %8 = tail call noundef nonnull align 8 dereferenceable(8) ptr @_ZNSo9_M_insertImEERSoT_(ptr noundef nonnull align 8 dereferenceable(8) %4, i64 noundef %7)
  %9 = tail call noundef nonnull align 8 dereferenceable(8) ptr @_ZSt16__ostream_insertIcSt11char_traitsIcEERSt13basic_ostreamIT_T0_ES6_PKS3_l(ptr noundef nonnull align 8 dereferenceable(8) %8, ptr noundef nonnull @.str.8, i64 noundef 2)
  %10 = getelementptr inbounds nuw i8, ptr %0, i64 16
  %11 = load ptr, ptr %10, align 8, !tbaa !6
  tail call void @_Z17ast_ll_bounded_ppRSoR11ast_managerP3astj(ptr noundef nonnull align 8 dereferenceable(8) %8, ptr noundef nonnull align 8 dereferenceable(976) %11, ptr noundef nonnull %2, i32 noundef 1)
  %12 = tail call noundef nonnull align 8 dereferenceable(8) ptr @_ZSt16__ostream_insertIcSt11char_traitsIcEERSt13basic_ostreamIT_T0_ES6_PKS3_l(ptr noundef nonnull align 8 dereferenceable(8) %8, ptr noundef nonnull @.str.1, i64 noundef 1)
  %13 = getelementptr inbounds nuw i8, ptr %0, i64 120
  %14 = tail call noundef nonnull align 8 dereferenceable(8) ptr @_Z14verbose_streamv()
  %15 = tail call noundef nonnull align 8 dereferenceable(8) ptr @_ZNK3sls7bv_eval13display_valueERSoP4expr(ptr noundef nonnull align 8 dereferenceable(865) %13, ptr noundef nonnull align 8 dereferenceable(8) %14, ptr noundef nonnull %2)
  %16 = tail call noundef nonnull align 8 dereferenceable(8) ptr @_ZSt16__ostream_insertIcSt11char_traitsIcEERSt13basic_ostreamIT_T0_ES6_PKS3_l(ptr noundef nonnull align 8 dereferenceable(8) %15, ptr noundef nonnull @.str.2, i64 noundef 1)
  ret ptr %15
}